target datalayout = "e-m:e-p270:32:32-p271:32:32-p272:64:64-i64:64-i128:128-f80:128-n8:16:32:64-S128"
target triple = "x86_64-pc-linux-gnu"

%class.Sample = type { ptr, ptr, ptr, ptr, ptr, i8, float, float, float, float, float, float, float, float, float, float, float, float, float, i32, i8, i8, i8, ptr, [9 x ptr], ptr, %class.SampleDebugDraw }
%class.SampleDebugDraw = type { %class.DebugDrawGL }
%class.DebugDrawGL = type { %struct.duDebugDraw }
%struct.duDebugDraw = type { ptr }

; Function Attrs: mustprogress uwtable
define dso_local void @_ZN6Sample15resetToolStatesEv(ptr noundef nonnull align 8 dereferenceable(200) %0) #2 align 2 {
  %2 = alloca ptr, align 8
  %3 = alloca i32, align 4
  store ptr %0, ptr %2, align 8
  %4 = load ptr, ptr %2, align 8
  store i32 0, ptr %3, align 4
  br label %5

5:                                                ; preds = %25, %1
  %6 = load i32, ptr %3, align 4
  %7 = icmp slt i32 %6, 9
  br i1 %7, label %8, label %28

8:                                                ; preds = %5
  %9 = getelementptr inbounds %class.Sample, ptr %4, i32 0, i32 24
  %10 = load i32, ptr %3, align 4
  %11 = sext i32 %10 to i64
  %12 = getelementptr inbounds [9 x ptr], ptr %9, i64 0, i64 %11
  %13 = load ptr, ptr %12, align 8
  %14 = icmp ne ptr %13, null
  br i1 %14, label %15, label %24

15:                                               ; preds = %8
  %16 = getelementptr inbounds %class.Sample, ptr %4, i32 0, i32 24
  %17 = load i32, ptr %3, align 4
  %18 = sext i32 %17 to i64
  %19 = getelementptr inbounds [9 x ptr], ptr %16, i64 0, i64 %18
  %20 = load ptr, ptr %19, align 8
  %21 = load ptr, ptr %20, align 8
  %22 = getelementptr inbounds ptr, ptr %21, i64 3
  %23 = load ptr, ptr %22, align 8
  call void %23(ptr noundef nonnull align 8 dereferenceable(8) %20)
  br label %24

24:                                               ; preds = %15, %8
  br label %25

25:                                               ; preds = %24
  %26 = load i32, ptr %3, align 4
  %27 = add nsw i32 %26, 1
  store i32 %27, ptr %3, align 4
  br label %5, !llvm.loop !10

28:                                               ; preds = %5
  ret void
}